target datalayout = "e-m:e-p270:32:32-p271:32:32-p272:64:64-i64:64-i128:128-f80:128-n8:16:32:64-S128"
target triple = "x86_64-pc-linux-gnu"

%struct.BuildCtx = type { ptr, i32, ptr, ptr, ptr, ptr, i64, i32, i32, i32, i32, i32, ptr, ptr, ptr, ptr, ptr, ptr, ptr, ptr, ptr, [200 x %struct.BuildReloc] }
%struct.BuildReloc = type { i32, i32, i32 }
%struct.dasm_State = type { i64, ptr, ptr, i64, ptr, i64, ptr, ptr, i64, i32, i32, [1 x %struct.dasm_Section] }
%struct.dasm_Section = type { ptr, ptr, i64, i32, i32, i32 }

; Function Attrs: nounwind uwtable
define dso_local void @dasm_init(ptr noundef %0, i32 noundef %1) #0 {
  %3 = alloca ptr, align 8
  %4 = alloca i32, align 4
  %5 = alloca ptr, align 8
  %6 = alloca i64, align 8
  %7 = alloca i64, align 8
  %8 = alloca i64, align 8
  store ptr %0, ptr %3, align 8, !tbaa !4
  store i32 %1, ptr %4, align 4, !tbaa !9
  call void @llvm.lifetime.start.p0(i64 8, ptr %5) #12
  call void @llvm.lifetime.start.p0(i64 8, ptr %6) #12
  store i64 0, ptr %6, align 8, !tbaa !11
  %9 = load ptr, ptr %3, align 8, !tbaa !4
  %10 = getelementptr inbounds nuw %struct.BuildCtx, ptr %9, i32 0, i32 0
  store ptr null, ptr %10, align 8, !tbaa !13
  br label %11

11:                                               ; preds = %2
  call void @llvm.lifetime.start.p0(i64 8, ptr %7) #12
  %12 = load i64, ptr %6, align 8, !tbaa !11
  store i64 %12, ptr %7, align 8, !tbaa !11
  call void @llvm.lifetime.start.p0(i64 8, ptr %8) #12
  %13 = load i32, ptr %4, align 4, !tbaa !9
  %14 = sub nsw i32 %13, 1
  %15 = sext i32 %14 to i64
  %16 = mul i64 %15, 40
  %17 = add i64 120, %16
  store i64 %17, ptr %8, align 8, !tbaa !11
  %18 = load i64, ptr %7, align 8, !tbaa !11
  %19 = load i64, ptr %8, align 8, !tbaa !11
  %20 = icmp ult i64 %18, %19
  br i1 %20, label %21, label %49

21:                                               ; preds = %11
  %22 = load i64, ptr %7, align 8, !tbaa !11
  %23 = icmp ult i64 %22, 16
  br i1 %23, label %24, label %25

24:                                               ; preds = %21
  store i64 16, ptr %7, align 8, !tbaa !11
  br label %25

25:                                               ; preds = %24, %21
  br label %26

26:                                               ; preds = %30, %25
  %27 = load i64, ptr %7, align 8, !tbaa !11
  %28 = load i64, ptr %8, align 8, !tbaa !11
  %29 = icmp ult i64 %27, %28
  br i1 %29, label %30, label %34

30:                                               ; preds = %26
  %31 = load i64, ptr %7, align 8, !tbaa !11
  %32 = load i64, ptr %7, align 8, !tbaa !11
  %33 = add i64 %32, %31
  store i64 %33, ptr %7, align 8, !tbaa !11
  br label %26, !llvm.loop !21

34:                                               ; preds = %26
  %35 = load ptr, ptr %3, align 8, !tbaa !4
  %36 = getelementptr inbounds nuw %struct.BuildCtx, ptr %35, i32 0, i32 0
  %37 = load ptr, ptr %36, align 8, !tbaa !13
  %38 = load i64, ptr %7, align 8, !tbaa !11
  %39 = call ptr @realloc(ptr noundef %37, i64 noundef %38) #13
  %40 = load ptr, ptr %3, align 8, !tbaa !4
  %41 = getelementptr inbounds nuw %struct.BuildCtx, ptr %40, i32 0, i32 0
  store ptr %39, ptr %41, align 8, !tbaa !13
  %42 = load ptr, ptr %3, align 8, !tbaa !4
  %43 = getelementptr inbounds nuw %struct.BuildCtx, ptr %42, i32 0, i32 0
  %44 = load ptr, ptr %43, align 8, !tbaa !13
  %45 = icmp eq ptr %44, null
  br i1 %45, label %46, label %47

46:                                               ; preds = %34
  call void @exit(i32 noundef 1) #14
  unreachable

47:                                               ; preds = %34
  %48 = load i64, ptr %7, align 8, !tbaa !11
  store i64 %48, ptr %6, align 8, !tbaa !11
  br label %49

49:                                               ; preds = %47, %11
  call void @llvm.lifetime.end.p0(i64 8, ptr %8) #12
  call void @llvm.lifetime.end.p0(i64 8, ptr %7) #12
  br label %50

50:                                               ; preds = %49
  br label %51

51:                                               ; preds = %50
  %52 = load ptr, ptr %3, align 8, !tbaa !4
  %53 = getelementptr inbounds nuw %struct.BuildCtx, ptr %52, i32 0, i32 0
  %54 = load ptr, ptr %53, align 8, !tbaa !13
  store ptr %54, ptr %5, align 8, !tbaa !23
  %55 = load i64, ptr %6, align 8, !tbaa !11
  %56 = load ptr, ptr %5, align 8, !tbaa !23
  %57 = getelementptr inbounds nuw %struct.dasm_State, ptr %56, i32 0, i32 0
  store i64 %55, ptr %57, align 8, !tbaa !24
  %58 = load ptr, ptr %5, align 8, !tbaa !23
  %59 = getelementptr inbounds nuw %struct.dasm_State, ptr %58, i32 0, i32 2
  store ptr null, ptr %59, align 8, !tbaa !27
  %60 = load ptr, ptr %5, align 8, !tbaa !23
  %61 = getelementptr inbounds nuw %struct.dasm_State, ptr %60, i32 0, i32 3
  store i64 0, ptr %61, align 8, !tbaa !28
  %62 = load ptr, ptr %5, align 8, !tbaa !23
  %63 = getelementptr inbounds nuw %struct.dasm_State, ptr %62, i32 0, i32 4
  store ptr null, ptr %63, align 8, !tbaa !29
  %64 = load ptr, ptr %5, align 8, !tbaa !23
  %65 = getelementptr inbounds nuw %struct.dasm_State, ptr %64, i32 0, i32 5
  store i64 0, ptr %65, align 8, !tbaa !30
  %66 = load ptr, ptr %5, align 8, !tbaa !23
  %67 = getelementptr inbounds nuw %struct.dasm_State, ptr %66, i32 0, i32 6
  store ptr null, ptr %67, align 8, !tbaa !31
  %68 = load i32, ptr %4, align 4, !tbaa !9
  %69 = load ptr, ptr %5, align 8, !tbaa !23
  %70 = getelementptr inbounds nuw %struct.dasm_State, ptr %69, i32 0, i32 9
  store i32 %68, ptr %70, align 8, !tbaa !32
  %71 = load ptr, ptr %5, align 8, !tbaa !23
  %72 = getelementptr inbounds nuw %struct.dasm_State, ptr %71, i32 0, i32 11
  %73 = getelementptr inbounds [1 x %struct.dasm_Section], ptr %72, i64 0, i64 0
  %74 = load i32, ptr %4, align 4, !tbaa !9
  %75 = sext i32 %74 to i64
  %76 = mul i64 %75, 40
  call void @llvm.memset.p0.i64(ptr align 8 %73, i8 0, i64 %76, i1 false)
  call void @llvm.lifetime.end.p0(i64 8, ptr %6) #12
  call void @llvm.lifetime.end.p0(i64 8, ptr %5) #12
  ret void
}