; Function Attrs: nofree nounwind uwtable
define dso_local void @dasm_init(ptr noundef writeonly captures(none) initializes((0, 8)) %0, i32 noundef %1) local_unnamed_addr #0 {
  store ptr null, ptr %0, align 8, !tbaa !4
  %3 = add nsw i32 %1, -1
  %4 = sext i32 %3 to i64
  %5 = mul nsw i64 %4, 40
  %6 = add nsw i64 %5, 120
  %.not = icmp ne i64 %6, 0
  tail call void @llvm.assume(i1 %.not)
  br label %.preheader

.preheader:                                       ; preds = %2, %.preheader
  %.026 = phi i64 [ %8, %.preheader ], [ 16, %2 ]
  %7 = icmp ult i64 %.026, %6
  %8 = shl i64 %.026, 1
  br i1 %7, label %.preheader, label %9, !llvm.loop !17

9:                                                ; preds = %.preheader
  %malloc = tail call ptr @malloc(i64 %.026)
  store ptr %malloc, ptr %0, align 8, !tbaa !4
  %10 = icmp eq ptr %malloc, null
  br i1 %10, label %11, label %12

11:                                               ; preds = %9
  tail call void @exit(i32 noundef 1) #24
  unreachable

12:                                               ; preds = %9
  store i64 %.026, ptr %malloc, align 8, !tbaa !19
  %13 = getelementptr inbounds nuw i8, ptr %malloc, i64 16
  %14 = getelementptr inbounds nuw i8, ptr %malloc, i64 72
  tail call void @llvm.memset.p0.i64(ptr noundef nonnull align 8 dereferenceable(40) %13, i8 0, i64 40, i1 false)
  store i32 %1, ptr %14, align 8, !tbaa !22
  %15 = getelementptr inbounds nuw i8, ptr %malloc, i64 80
  %16 = sext i32 %1 to i64
  %17 = mul nsw i64 %16, 40
  tail call void @llvm.memset.p0.i64(ptr nonnull align 8 %15, i8 0, i64 %17, i1 false)
  ret void
}